target datalayout = "e-m:e-p270:32:32-p271:32:32-p272:64:64-i64:64-i128:128-f80:128-n8:16:32:64-S128"
target triple = "x86_64-pc-linux-gnu"

; Function Attrs: nounwind uwtable
define dso_local i32 @LZ4_decompress_safe_usingDict(ptr noundef %0, ptr noundef %1, i32 noundef %2, i32 noundef %3, ptr noundef %4, i32 noundef %5) #0 {
  %7 = alloca i32, align 4
  %8 = alloca ptr, align 8
  %9 = alloca ptr, align 8
  %10 = alloca i32, align 4
  %11 = alloca i32, align 4
  %12 = alloca ptr, align 8
  %13 = alloca i32, align 4
  store ptr %0, ptr %8, align 8, !tbaa !10
  store ptr %1, ptr %9, align 8, !tbaa !10
  store i32 %2, ptr %10, align 4, !tbaa !4
  store i32 %3, ptr %11, align 4, !tbaa !4
  store ptr %4, ptr %12, align 8, !tbaa !10
  store i32 %5, ptr %13, align 4, !tbaa !4
  %14 = load i32, ptr %13, align 4, !tbaa !4
  %15 = icmp eq i32 %14, 0
  br i1 %15, label %16, label %22

16:                                               ; preds = %6
  %17 = load ptr, ptr %8, align 8, !tbaa !10
  %18 = load ptr, ptr %9, align 8, !tbaa !10
  %19 = load i32, ptr %10, align 4, !tbaa !4
  %20 = load i32, ptr %11, align 4, !tbaa !4
  %21 = call i32 @LZ4_decompress_safe(ptr noundef %17, ptr noundef %18, i32 noundef %19, i32 noundef %20)
  store i32 %21, ptr %7, align 4
  br label %55

22:                                               ; preds = %6
  %23 = load ptr, ptr %12, align 8, !tbaa !10
  %24 = load i32, ptr %13, align 4, !tbaa !4
  %25 = sext i32 %24 to i64
  %26 = getelementptr inbounds i8, ptr %23, i64 %25
  %27 = load ptr, ptr %9, align 8, !tbaa !10
  %28 = icmp eq ptr %26, %27
  br i1 %28, label %29, label %46

29:                                               ; preds = %22
  %30 = load i32, ptr %13, align 4, !tbaa !4
  %31 = icmp sge i32 %30, 65535
  br i1 %31, label %32, label %38

32:                                               ; preds = %29
  %33 = load ptr, ptr %8, align 8, !tbaa !10
  %34 = load ptr, ptr %9, align 8, !tbaa !10
  %35 = load i32, ptr %10, align 4, !tbaa !4
  %36 = load i32, ptr %11, align 4, !tbaa !4
  %37 = call i32 @LZ4_decompress_safe_withPrefix64k(ptr noundef %33, ptr noundef %34, i32 noundef %35, i32 noundef %36)
  store i32 %37, ptr %7, align 4
  br label %55

38:                                               ; preds = %29
  %39 = load ptr, ptr %8, align 8, !tbaa !10
  %40 = load ptr, ptr %9, align 8, !tbaa !10
  %41 = load i32, ptr %10, align 4, !tbaa !4
  %42 = load i32, ptr %11, align 4, !tbaa !4
  %43 = load i32, ptr %13, align 4, !tbaa !4
  %44 = sext i32 %43 to i64
  %45 = call i32 @LZ4_decompress_safe_withSmallPrefix(ptr noundef %39, ptr noundef %40, i32 noundef %41, i32 noundef %42, i64 noundef %44)
  store i32 %45, ptr %7, align 4
  br label %55

46:                                               ; preds = %22
  %47 = load ptr, ptr %8, align 8, !tbaa !10
  %48 = load ptr, ptr %9, align 8, !tbaa !10
  %49 = load i32, ptr %10, align 4, !tbaa !4
  %50 = load i32, ptr %11, align 4, !tbaa !4
  %51 = load ptr, ptr %12, align 8, !tbaa !10
  %52 = load i32, ptr %13, align 4, !tbaa !4
  %53 = sext i32 %52 to i64
  %54 = call i32 @LZ4_decompress_safe_forceExtDict(ptr noundef %47, ptr noundef %48, i32 noundef %49, i32 noundef %50, ptr noundef %51, i64 noundef %53)
  store i32 %54, ptr %7, align 4
  br label %55

55:                                               ; preds = %46, %38, %32, %16
  %56 = load i32, ptr %7, align 4
  ret i32 %56
}