; Function Attrs: nofree norecurse nosync nounwind memory(readwrite, inaccessiblemem: none) uwtable
define dso_local i32 @LZ4_decompress_safe_usingDict(ptr noundef %0, ptr noundef %1, i32 noundef %2, i32 noundef %3, ptr noundef captures(address) %4, i32 noundef %5) local_unnamed_addr #1 {
  %7 = icmp eq i32 %5, 0
  br i1 %7, label %8, label %10

8:                                                ; preds = %6
  %9 = tail call i32 @LZ4_decompress_safe(ptr noundef %0, ptr noundef %1, i32 noundef %2, i32 noundef %3)
  br label %22

10:                                               ; preds = %6
  %11 = sext i32 %5 to i64
  %12 = getelementptr inbounds i8, ptr %4, i64 %11
  %13 = icmp eq ptr %12, %1
  br i1 %13, label %14, label %20

14:                                               ; preds = %10
  %15 = icmp sgt i32 %5, 65534
  br i1 %15, label %16, label %18

16:                                               ; preds = %14
  %17 = tail call i32 @LZ4_decompress_safe_withPrefix64k(ptr noundef %0, ptr noundef %1, i32 noundef %2, i32 noundef %3)
  br label %22

18:                                               ; preds = %14
  %19 = tail call fastcc i32 @LZ4_decompress_safe_withSmallPrefix(ptr noundef %0, ptr noundef %1, i32 noundef %2, i32 noundef %3, i64 noundef %11)
  br label %22

20:                                               ; preds = %10
  %21 = tail call i32 @LZ4_decompress_safe_forceExtDict(ptr noundef %0, ptr noundef %1, i32 noundef %2, i32 noundef %3, ptr noundef %4, i64 noundef %11)
  br label %22

22:                                               ; preds = %20, %18, %16, %8
  %.0 = phi i32 [ %9, %8 ], [ %17, %16 ], [ %19, %18 ], [ %21, %20 ]
  ret i32 %.0
}